; Function Attrs: mustprogress uwtable
define void @_ZN32pxrInternal_v0_24__pxrReserved__22Vt_DefaultValueFactoryINS_7GfVec3iEE6InvokeEv(ptr dead_on_unwind noalias nocapture writable writeonly sret(%"struct.pxrInternal_v0_24__pxrReserved__::Vt_DefaultValueHolder") align 8 %0) local_unnamed_addr #0 align 2 personality ptr @__gxx_personality_v0 {
  %2 = tail call { i64, i32 } @_ZN32pxrInternal_v0_24__pxrReserved__6VtZeroINS_7GfVec3iEEET_v()
  %.fca.0.extract = extractvalue { i64, i32 } %2, 0
  %.fca.1.extract = extractvalue { i64, i32 } %2, 1
  tail call void @llvm.experimental.noalias.scope.decl(metadata !75)
  %3 = tail call noalias noundef nonnull dereferenceable(12) ptr @_Znwm(i64 noundef 12) #23, !noalias !78
  store i64 %.fca.0.extract, ptr %3, align 8, !noalias !78
  %.sroa.2.0..sroa_idx1 = getelementptr inbounds i8, ptr %3, i64 8
  store i32 %.fca.1.extract, ptr %.sroa.2.0..sroa_idx1, align 8, !noalias !78
  store ptr %3, ptr %0, align 8, !alias.scope !75
  %4 = getelementptr inbounds nuw i8, ptr %0, i64 8
  store ptr @_ZN32pxrInternal_v0_24__pxrReserved__14TfAnyUniquePtr7_DeleteINS_7GfVec3iEEEvPKv, ptr %4, align 8, !alias.scope !75
  %5 = getelementptr inbounds nuw i8, ptr %0, i64 16
  store ptr @_ZTIN32pxrInternal_v0_24__pxrReserved__7GfVec3iE, ptr %5, align 8, !alias.scope !75
  ret void
}